target datalayout = "e-m:e-p270:32:32-p271:32:32-p272:64:64-i64:64-i128:128-f80:128-n8:16:32:64-S128"
target triple = "x86_64-pc-linux-gnu"

%struct.QuadTree_struct = type { i32, double, i32, ptr, double, ptr, ptr, ptr, i32, ptr }
%struct.node_data_struct = type { double, ptr, i32, ptr, ptr }

; Function Attrs: nounwind uwtable
define internal void @QuadTree_get_nearest_internal(ptr noundef %0, ptr noundef %1, ptr noundef %2, ptr noundef %3, ptr noundef %4, i1 noundef zeroext %5) #0 {
  %7 = alloca ptr, align 8
  %8 = alloca ptr, align 8
  %9 = alloca ptr, align 8
  %10 = alloca ptr, align 8
  %11 = alloca ptr, align 8
  %12 = alloca i8, align 1
  %13 = alloca ptr, align 8
  %14 = alloca double, align 8
  %15 = alloca i32, align 4
  %16 = alloca i32, align 4
  %17 = alloca i32, align 4
  %18 = alloca double, align 8
  %19 = alloca i32, align 4
  %20 = alloca ptr, align 8
  store ptr %0, ptr %7, align 8, !tbaa !3
  store ptr %1, ptr %8, align 8, !tbaa !10
  store ptr %2, ptr %9, align 8, !tbaa !10
  store ptr %3, ptr %10, align 8, !tbaa !10
  store ptr %4, ptr %11, align 8, !tbaa !14
  %21 = zext i1 %5 to i8
  store i8 %21, ptr %12, align 1, !tbaa !82
  call void @llvm.lifetime.start.p0(i64 8, ptr %13) #11
  call void @llvm.lifetime.start.p0(i64 8, ptr %14) #11
  call void @llvm.lifetime.start.p0(i64 4, ptr %15) #11
  call void @llvm.lifetime.start.p0(i64 4, ptr %16) #11
  call void @llvm.lifetime.start.p0(i64 4, ptr %17) #11
  store i32 -1, ptr %17, align 4, !tbaa !12
  call void @llvm.lifetime.start.p0(i64 8, ptr %18) #11
  %22 = load ptr, ptr %7, align 8, !tbaa !3
  %23 = icmp ne ptr %22, null
  br i1 %23, label %25, label %24

24:                                               ; preds = %6
  store i32 1, ptr %19, align 4
  br label %196

25:                                               ; preds = %6
  %26 = load ptr, ptr %7, align 8, !tbaa !3
  %27 = getelementptr inbounds nuw %struct.QuadTree_struct, ptr %26, i32 0, i32 2
  %28 = load i32, ptr %27, align 8, !tbaa !18
  store i32 %28, ptr %15, align 4, !tbaa !12
  call void @llvm.lifetime.start.p0(i64 8, ptr %20) #11
  %29 = load ptr, ptr %7, align 8, !tbaa !3
  %30 = getelementptr inbounds nuw %struct.QuadTree_struct, ptr %29, i32 0, i32 7
  %31 = load ptr, ptr %30, align 8, !tbaa !27
  store ptr %31, ptr %20, align 8, !tbaa !28
  br label %32

32:                                               ; preds = %76, %25
  %33 = load ptr, ptr %20, align 8, !tbaa !28
  %34 = icmp ne ptr %33, null
  br i1 %34, label %35, label %80

35:                                               ; preds = %32
  %36 = load ptr, ptr %20, align 8, !tbaa !28
  %37 = getelementptr inbounds nuw %struct.node_data_struct, ptr %36, i32 0, i32 1
  %38 = load ptr, ptr %37, align 8, !tbaa !31
  store ptr %38, ptr %13, align 8, !tbaa !10
  %39 = load ptr, ptr %8, align 8, !tbaa !10
  %40 = load ptr, ptr %13, align 8, !tbaa !10
  %41 = load i32, ptr %15, align 4, !tbaa !12
  %42 = call double @point_distance(ptr noundef %39, ptr noundef %40, i32 noundef %41)
  store double %42, ptr %14, align 8, !tbaa !8
  %43 = load ptr, ptr %10, align 8, !tbaa !10
  %44 = load double, ptr %43, align 8, !tbaa !8
  %45 = fcmp olt double %44, 0.000000e+00
  br i1 %45, label %51, label %46

46:                                               ; preds = %35
  %47 = load double, ptr %14, align 8, !tbaa !8
  %48 = load ptr, ptr %10, align 8, !tbaa !10
  %49 = load double, ptr %48, align 8, !tbaa !8
  %50 = fcmp olt double %47, %49
  br i1 %50, label %51, label %76

51:                                               ; preds = %46, %35
  %52 = load double, ptr %14, align 8, !tbaa !8
  %53 = load ptr, ptr %10, align 8, !tbaa !10
  store double %52, ptr %53, align 8, !tbaa !8
  %54 = load ptr, ptr %20, align 8, !tbaa !28
  %55 = getelementptr inbounds nuw %struct.node_data_struct, ptr %54, i32 0, i32 2
  %56 = load i32, ptr %55, align 8, !tbaa !29
  %57 = load ptr, ptr %11, align 8, !tbaa !14
  store i32 %56, ptr %57, align 4, !tbaa !12
  store i32 0, ptr %16, align 4, !tbaa !12
  br label %58

58:                                               ; preds = %72, %51
  %59 = load i32, ptr %16, align 4, !tbaa !12
  %60 = load i32, ptr %15, align 4, !tbaa !12
  %61 = icmp slt i32 %59, %60
  br i1 %61, label %62, label %75

62:                                               ; preds = %58
  %63 = load ptr, ptr %13, align 8, !tbaa !10
  %64 = load i32, ptr %16, align 4, !tbaa !12
  %65 = sext i32 %64 to i64
  %66 = getelementptr inbounds double, ptr %63, i64 %65
  %67 = load double, ptr %66, align 8, !tbaa !8
  %68 = load ptr, ptr %9, align 8, !tbaa !10
  %69 = load i32, ptr %16, align 4, !tbaa !12
  %70 = sext i32 %69 to i64
  %71 = getelementptr inbounds double, ptr %68, i64 %70
  store double %67, ptr %71, align 8, !tbaa !8
  br label %72

72:                                               ; preds = %62
  %73 = load i32, ptr %16, align 4, !tbaa !12
  %74 = add nsw i32 %73, 1
  store i32 %74, ptr %16, align 4, !tbaa !12
  br label %58, !llvm.loop !84

75:                                               ; preds = %58
  br label %76

76:                                               ; preds = %75, %46
  %77 = load ptr, ptr %20, align 8, !tbaa !28
  %78 = getelementptr inbounds nuw %struct.node_data_struct, ptr %77, i32 0, i32 4
  %79 = load ptr, ptr %78, align 8, !tbaa !35
  store ptr %79, ptr %20, align 8, !tbaa !28
  br label %32, !llvm.loop !85

80:                                               ; preds = %32
  %81 = load ptr, ptr %7, align 8, !tbaa !3
  %82 = getelementptr inbounds nuw %struct.QuadTree_struct, ptr %81, i32 0, i32 6
  %83 = load ptr, ptr %82, align 8, !tbaa !37
  %84 = icmp ne ptr %83, null
  br i1 %84, label %85, label %194

85:                                               ; preds = %80
  %86 = load ptr, ptr %7, align 8, !tbaa !3
  %87 = getelementptr inbounds nuw %struct.QuadTree_struct, ptr %86, i32 0, i32 3
  %88 = load ptr, ptr %87, align 8, !tbaa !38
  %89 = load ptr, ptr %8, align 8, !tbaa !10
  %90 = load i32, ptr %15, align 4, !tbaa !12
  %91 = call double @point_distance(ptr noundef %88, ptr noundef %89, i32 noundef %90)
  store double %91, ptr %14, align 8, !tbaa !8
  %92 = load ptr, ptr %10, align 8, !tbaa !10
  %93 = load double, ptr %92, align 8, !tbaa !8
  %94 = fcmp oge double %93, 0.000000e+00
  br i1 %94, label %95, label %109

95:                                               ; preds = %85
  %96 = load double, ptr %14, align 8, !tbaa !8
  %97 = load i32, ptr %15, align 4, !tbaa !12
  %98 = sitofp i32 %97 to double
  %99 = call double @sqrt(double noundef %98) #11, !tbaa !12
  %100 = load ptr, ptr %7, align 8, !tbaa !3
  %101 = getelementptr inbounds nuw %struct.QuadTree_struct, ptr %100, i32 0, i32 4
  %102 = load double, ptr %101, align 8, !tbaa !39
  %103 = fneg double %99
  %104 = call double @llvm.fmuladd.f64(double %103, double %102, double %96)
  %105 = load ptr, ptr %10, align 8, !tbaa !10
  %106 = load double, ptr %105, align 8, !tbaa !8
  %107 = fcmp ogt double %104, %106
  br i1 %107, label %108, label %109

108:                                              ; preds = %95
  store i32 1, ptr %19, align 4
  br label %195

109:                                              ; preds = %95, %85
  %110 = load i8, ptr %12, align 1, !tbaa !82, !range !86, !noundef !87
  %111 = trunc i8 %110 to i1
  br i1 %111, label %112, label %168

112:                                              ; preds = %109
  store double -1.000000e+00, ptr %18, align 8, !tbaa !8
  store i32 0, ptr %16, align 4, !tbaa !12
  br label %113

113:                                              ; preds = %151, %112
  %114 = load i32, ptr %16, align 4, !tbaa !12
  %115 = load i32, ptr %15, align 4, !tbaa !12
  %116 = shl i32 1, %115
  %117 = icmp slt i32 %114, %116
  br i1 %117, label %118, label %154

118:                                              ; preds = %113
  %119 = load ptr, ptr %7, align 8, !tbaa !3
  %120 = getelementptr inbounds nuw %struct.QuadTree_struct, ptr %119, i32 0, i32 6
  %121 = load ptr, ptr %120, align 8, !tbaa !37
  %122 = load i32, ptr %16, align 4, !tbaa !12
  %123 = sext i32 %122 to i64
  %124 = getelementptr inbounds ptr, ptr %121, i64 %123
  %125 = load ptr, ptr %124, align 8, !tbaa !3
  %126 = icmp ne ptr %125, null
  br i1 %126, label %127, label %150

127:                                              ; preds = %118
  %128 = load ptr, ptr %7, align 8, !tbaa !3
  %129 = getelementptr inbounds nuw %struct.QuadTree_struct, ptr %128, i32 0, i32 6
  %130 = load ptr, ptr %129, align 8, !tbaa !37
  %131 = load i32, ptr %16, align 4, !tbaa !12
  %132 = sext i32 %131 to i64
  %133 = getelementptr inbounds ptr, ptr %130, i64 %132
  %134 = load ptr, ptr %133, align 8, !tbaa !3
  %135 = getelementptr inbounds nuw %struct.QuadTree_struct, ptr %134, i32 0, i32 5
  %136 = load ptr, ptr %135, align 8, !tbaa !40
  %137 = load ptr, ptr %8, align 8, !tbaa !10
  %138 = load i32, ptr %15, align 4, !tbaa !12
  %139 = call double @point_distance(ptr noundef %136, ptr noundef %137, i32 noundef %138)
  store double %139, ptr %14, align 8, !tbaa !8
  %140 = load double, ptr %14, align 8, !tbaa !8
  %141 = load double, ptr %18, align 8, !tbaa !8
  %142 = fcmp olt double %140, %141
  br i1 %142, label %146, label %143

143:                                              ; preds = %127
  %144 = load double, ptr %18, align 8, !tbaa !8
  %145 = fcmp olt double %144, 0.000000e+00
  br i1 %145, label %146, label %149

146:                                              ; preds = %143, %127
  %147 = load double, ptr %14, align 8, !tbaa !8
  store double %147, ptr %18, align 8, !tbaa !8
  %148 = load i32, ptr %16, align 4, !tbaa !12
  store i32 %148, ptr %17, align 4, !tbaa !12
  br label %149

149:                                              ; preds = %146, %143
  br label %150

150:                                              ; preds = %149, %118
  br label %151

151:                                              ; preds = %150
  %152 = load i32, ptr %16, align 4, !tbaa !12
  %153 = add nsw i32 %152, 1
  store i32 %153, ptr %16, align 4, !tbaa !12
  br label %113, !llvm.loop !88

154:                                              ; preds = %113
  %155 = load ptr, ptr %7, align 8, !tbaa !3
  %156 = getelementptr inbounds nuw %struct.QuadTree_struct, ptr %155, i32 0, i32 6
  %157 = load ptr, ptr %156, align 8, !tbaa !37
  %158 = load i32, ptr %17, align 4, !tbaa !12
  %159 = sext i32 %158 to i64
  %160 = getelementptr inbounds ptr, ptr %157, i64 %159
  %161 = load ptr, ptr %160, align 8, !tbaa !3
  %162 = load ptr, ptr %8, align 8, !tbaa !10
  %163 = load ptr, ptr %9, align 8, !tbaa !10
  %164 = load ptr, ptr %10, align 8, !tbaa !10
  %165 = load ptr, ptr %11, align 8, !tbaa !14
  %166 = load i8, ptr %12, align 1, !tbaa !82, !range !86, !noundef !87
  %167 = trunc i8 %166 to i1
  call void @QuadTree_get_nearest_internal(ptr noundef %161, ptr noundef %162, ptr noundef %163, ptr noundef %164, ptr noundef %165, i1 noundef zeroext %167)
  br label %192

168:                                              ; preds = %109
  store i32 0, ptr %16, align 4, !tbaa !12
  br label %169

169:                                              ; preds = %188, %168
  %170 = load i32, ptr %16, align 4, !tbaa !12
  %171 = load i32, ptr %15, align 4, !tbaa !12
  %172 = shl i32 1, %171
  %173 = icmp slt i32 %170, %172
  br i1 %173, label %174, label %191

174:                                              ; preds = %169
  %175 = load ptr, ptr %7, align 8, !tbaa !3
  %176 = getelementptr inbounds nuw %struct.QuadTree_struct, ptr %175, i32 0, i32 6
  %177 = load ptr, ptr %176, align 8, !tbaa !37
  %178 = load i32, ptr %16, align 4, !tbaa !12
  %179 = sext i32 %178 to i64
  %180 = getelementptr inbounds ptr, ptr %177, i64 %179
  %181 = load ptr, ptr %180, align 8, !tbaa !3
  %182 = load ptr, ptr %8, align 8, !tbaa !10
  %183 = load ptr, ptr %9, align 8, !tbaa !10
  %184 = load ptr, ptr %10, align 8, !tbaa !10
  %185 = load ptr, ptr %11, align 8, !tbaa !14
  %186 = load i8, ptr %12, align 1, !tbaa !82, !range !86, !noundef !87
  %187 = trunc i8 %186 to i1
  call void @QuadTree_get_nearest_internal(ptr noundef %181, ptr noundef %182, ptr noundef %183, ptr noundef %184, ptr noundef %185, i1 noundef zeroext %187)
  br label %188

188:                                              ; preds = %174
  %189 = load i32, ptr %16, align 4, !tbaa !12
  %190 = add nsw i32 %189, 1
  store i32 %190, ptr %16, align 4, !tbaa !12
  br label %169, !llvm.loop !89

191:                                              ; preds = %169
  br label %192

192:                                              ; preds = %191, %154
  br label %193

193:                                              ; preds = %192
  br label %194

194:                                              ; preds = %193, %80
  store i32 0, ptr %19, align 4
  br label %195

195:                                              ; preds = %194, %108
  call void @llvm.lifetime.end.p0(i64 8, ptr %20) #11
  br label %196

196:                                              ; preds = %195, %24
  call void @llvm.lifetime.end.p0(i64 8, ptr %18) #11
  call void @llvm.lifetime.end.p0(i64 4, ptr %17) #11
  call void @llvm.lifetime.end.p0(i64 4, ptr %16) #11
  call void @llvm.lifetime.end.p0(i64 4, ptr %15) #11
  call void @llvm.lifetime.end.p0(i64 8, ptr %14) #11
  call void @llvm.lifetime.end.p0(i64 8, ptr %13) #11
  %197 = load i32, ptr %19, align 4
  switch i32 %197, label %199 [
    i32 0, label %198
    i32 1, label %198
  ]

198:                                              ; preds = %196, %196
  ret void

199:                                              ; preds = %196
  unreachable
}