; Function Attrs: nounwind uwtable
define internal fastcc void @QuadTree_get_nearest_internal(ptr noundef readonly captures(address_is_null) %0, ptr noundef %1, ptr noundef writeonly captures(none) %2, ptr noundef captures(none) %3, ptr noundef writeonly captures(none) %4, i1 noundef zeroext %5) unnamed_addr #0 {
  %.not96 = icmp eq ptr %0, null
  br i1 %.not96, label %.loopexit, label %.lr.ph100

.lr.ph100:                                        ; preds = %6, %tailrecurse
  %.tr8298 = phi i1 [ true, %tailrecurse ], [ %5, %6 ]
  %.tr97 = phi ptr [ %68, %tailrecurse ], [ %0, %6 ]
  %7 = getelementptr inbounds nuw i8, ptr %.tr97, i64 16
  %8 = load i32, ptr %7, align 8, !tbaa !3
  %.fr104 = freeze i32 %8
  %9 = getelementptr inbounds nuw i8, ptr %.tr97, i64 56
  %.088 = load ptr, ptr %9, align 8, !tbaa !18
  %.not7489 = icmp eq ptr %.088, null
  br i1 %.not7489, label %._crit_edge, label %.lr.ph91

.lr.ph91:                                         ; preds = %.lr.ph100
  %10 = icmp sgt i32 %.fr104, 0
  br i1 %10, label %.lr.ph91.split.us.preheader, label %.lr.ph91.split

.lr.ph91.split.us.preheader:                      ; preds = %.lr.ph91
  %wide.trip.count = zext nneg i32 %.fr104 to i64
  br label %.lr.ph91.split.us

.lr.ph91.split.us:                                ; preds = %.lr.ph91.split.us.preheader, %..loopexit83_crit_edge.us
  %.090.us = phi ptr [ %.0.us, %..loopexit83_crit_edge.us ], [ %.088, %.lr.ph91.split.us.preheader ]
  %11 = getelementptr inbounds nuw i8, ptr %.090.us, i64 8
  %12 = load ptr, ptr %11, align 8, !tbaa !21
  %13 = tail call double @point_distance(ptr noundef %1, ptr noundef %12, i32 noundef %.fr104) #18
  %14 = load double, ptr %3, align 8, !tbaa !13
  %15 = fcmp olt double %14, 0.000000e+00
  %16 = fcmp olt double %13, %14
  %or.cond77.us = select i1 %15, i1 true, i1 %16
  br i1 %or.cond77.us, label %.lr.ph.us, label %..loopexit83_crit_edge.us

.lr.ph.us:                                        ; preds = %.lr.ph91.split.us
  store double %13, ptr %3, align 8, !tbaa !13
  %17 = getelementptr inbounds nuw i8, ptr %.090.us, i64 16
  %18 = load i32, ptr %17, align 8, !tbaa !19
  store i32 %18, ptr %4, align 4, !tbaa !14
  br label %20

..loopexit83_crit_edge.us:                        ; preds = %20, %.lr.ph91.split.us
  %19 = getelementptr inbounds nuw i8, ptr %.090.us, i64 32
  %.0.us = load ptr, ptr %19, align 8, !tbaa !18
  %.not74.us = icmp eq ptr %.0.us, null
  br i1 %.not74.us, label %._crit_edge, label %.lr.ph91.split.us, !llvm.loop !70

20:                                               ; preds = %.lr.ph.us, %20
  %indvars.iv = phi i64 [ 0, %.lr.ph.us ], [ %indvars.iv.next, %20 ]
  %21 = getelementptr inbounds nuw double, ptr %12, i64 %indvars.iv
  %22 = load double, ptr %21, align 8, !tbaa !13
  %23 = getelementptr inbounds nuw double, ptr %2, i64 %indvars.iv
  store double %22, ptr %23, align 8, !tbaa !13
  %indvars.iv.next = add nuw nsw i64 %indvars.iv, 1
  %exitcond.not = icmp eq i64 %indvars.iv.next, %wide.trip.count
  br i1 %exitcond.not, label %..loopexit83_crit_edge.us, label %20, !llvm.loop !71

.lr.ph91.split:                                   ; preds = %.lr.ph91, %32
  %.090 = phi ptr [ %.0, %32 ], [ %.088, %.lr.ph91 ]
  %24 = getelementptr inbounds nuw i8, ptr %.090, i64 8
  %25 = load ptr, ptr %24, align 8, !tbaa !21
  %26 = tail call double @point_distance(ptr noundef %1, ptr noundef %25, i32 noundef %.fr104) #18
  %27 = load double, ptr %3, align 8, !tbaa !13
  %28 = fcmp olt double %27, 0.000000e+00
  %29 = fcmp olt double %26, %27
  %or.cond77 = select i1 %28, i1 true, i1 %29
  br i1 %or.cond77, label %.loopexit83, label %32

.loopexit83:                                      ; preds = %.lr.ph91.split
  store double %26, ptr %3, align 8, !tbaa !13
  %30 = getelementptr inbounds nuw i8, ptr %.090, i64 16
  %31 = load i32, ptr %30, align 8, !tbaa !19
  store i32 %31, ptr %4, align 4, !tbaa !14
  br label %32

32:                                               ; preds = %.loopexit83, %.lr.ph91.split
  %33 = getelementptr inbounds nuw i8, ptr %.090, i64 32
  %.0 = load ptr, ptr %33, align 8, !tbaa !18
  %.not74 = icmp eq ptr %.0, null
  br i1 %.not74, label %._crit_edge, label %.lr.ph91.split, !llvm.loop !70

._crit_edge:                                      ; preds = %32, %..loopexit83_crit_edge.us, %.lr.ph100
  %34 = getelementptr inbounds nuw i8, ptr %.tr97, i64 48
  %35 = load ptr, ptr %34, align 8, !tbaa !26
  %.not75 = icmp eq ptr %35, null
  br i1 %.not75, label %.loopexit, label %36

36:                                               ; preds = %._crit_edge
  %37 = getelementptr inbounds nuw i8, ptr %.tr97, i64 24
  %38 = load ptr, ptr %37, align 8, !tbaa !27
  %39 = tail call double @point_distance(ptr noundef %38, ptr noundef %1, i32 noundef %.fr104) #18
  %40 = load double, ptr %3, align 8, !tbaa !13
  %41 = fcmp ult double %40, 0.000000e+00
  br i1 %41, label %50, label %42

42:                                               ; preds = %36
  %43 = sitofp i32 %.fr104 to double
  %44 = tail call double @sqrt(double noundef %43) #18, !tbaa !14
  %45 = getelementptr inbounds nuw i8, ptr %.tr97, i64 32
  %46 = load double, ptr %45, align 8, !tbaa !28
  %47 = fneg double %44
  %48 = tail call double @llvm.fmuladd.f64(double %47, double %46, double %39)
  %49 = fcmp ogt double %48, %40
  br i1 %49, label %.loopexit, label %50

50:                                               ; preds = %42, %36
  %.not106 = icmp eq i32 %.fr104, 31
  br i1 %.tr8298, label %.preheader84, label %.preheader

.preheader84:                                     ; preds = %50
  br i1 %.not106, label %tailrecurse, label %.lr.ph.preheader

.lr.ph.preheader:                                 ; preds = %.preheader84
  %51 = shl nuw nsw i32 1, %.fr104
  %wide.trip.count115 = zext nneg i32 %51 to i64
  br label %.lr.ph

.preheader:                                       ; preds = %50
  br i1 %.not106, label %.loopexit, label %.lr.ph103.preheader

.lr.ph103.preheader:                              ; preds = %.preheader
  %52 = shl nuw nsw i32 1, %.fr104
  %wide.trip.count121 = zext nneg i32 %52 to i64
  br label %.lr.ph103

.lr.ph:                                           ; preds = %.lr.ph.preheader, %64
  %indvars.iv112 = phi i64 [ 0, %.lr.ph.preheader ], [ %indvars.iv.next113, %64 ]
  %.06494 = phi double [ -1.000000e+00, %.lr.ph.preheader ], [ %.1, %64 ]
  %.06593 = phi i32 [ -1, %.lr.ph.preheader ], [ %.166, %64 ]
  %53 = load ptr, ptr %34, align 8, !tbaa !26
  %54 = getelementptr inbounds nuw ptr, ptr %53, i64 %indvars.iv112
  %55 = load ptr, ptr %54, align 8, !tbaa !32
  %.not76 = icmp eq ptr %55, null
  br i1 %.not76, label %64, label %56

56:                                               ; preds = %.lr.ph
  %57 = getelementptr inbounds nuw i8, ptr %55, i64 40
  %58 = load ptr, ptr %57, align 8, !tbaa !29
  %59 = tail call double @point_distance(ptr noundef %58, ptr noundef %1, i32 noundef %.fr104) #18
  %60 = fcmp olt double %59, %.06494
  %61 = fcmp olt double %.06494, 0.000000e+00
  %or.cond = or i1 %61, %60
  br i1 %or.cond, label %62, label %64

62:                                               ; preds = %56
  %63 = trunc nuw nsw i64 %indvars.iv112 to i32
  br label %64

64:                                               ; preds = %.lr.ph, %56, %62
  %.166 = phi i32 [ %63, %62 ], [ %.06593, %56 ], [ %.06593, %.lr.ph ]
  %.1 = phi double [ %59, %62 ], [ %.06494, %56 ], [ %.06494, %.lr.ph ]
  %indvars.iv.next113 = add nuw nsw i64 %indvars.iv112, 1
  %exitcond116.not = icmp eq i64 %indvars.iv.next113, %wide.trip.count115
  br i1 %exitcond116.not, label %tailrecurse.loopexit, label %.lr.ph, !llvm.loop !72

tailrecurse.loopexit:                             ; preds = %64
  %65 = sext i32 %.166 to i64
  br label %tailrecurse

tailrecurse:                                      ; preds = %tailrecurse.loopexit, %.preheader84
  %.065.lcssa = phi i64 [ -1, %.preheader84 ], [ %65, %tailrecurse.loopexit ]
  %66 = load ptr, ptr %34, align 8, !tbaa !26
  %67 = getelementptr inbounds ptr, ptr %66, i64 %.065.lcssa
  %68 = load ptr, ptr %67, align 8, !tbaa !32
  %.not = icmp eq ptr %68, null
  br i1 %.not, label %.loopexit, label %.lr.ph100

.lr.ph103:                                        ; preds = %.lr.ph103.preheader, %.lr.ph103
  %indvars.iv117 = phi i64 [ 0, %.lr.ph103.preheader ], [ %indvars.iv.next118, %.lr.ph103 ]
  %69 = load ptr, ptr %34, align 8, !tbaa !26
  %70 = getelementptr inbounds nuw ptr, ptr %69, i64 %indvars.iv117
  %71 = load ptr, ptr %70, align 8, !tbaa !32
  tail call fastcc void @QuadTree_get_nearest_internal(ptr noundef %71, ptr noundef %1, ptr noundef %2, ptr noundef nonnull %3, ptr noundef %4, i1 noundef zeroext false)
  %indvars.iv.next118 = add nuw nsw i64 %indvars.iv117, 1
  %exitcond122.not = icmp eq i64 %indvars.iv.next118, %wide.trip.count121
  br i1 %exitcond122.not, label %.loopexit, label %.lr.ph103, !llvm.loop !73

.loopexit:                                        ; preds = %tailrecurse, %._crit_edge, %42, %.lr.ph103, %6, %.preheader
  ret void
}